; Function Attrs: mustprogress nounwind uwtable
define hidden void @_ZN30CompilationMemoryStatisticMarkC2EPK12DirectiveSet(ptr nocapture noundef nonnull writeonly align 1 dereferenceable(1) %0, ptr noundef nonnull %1) unnamed_addr #3 align 2 {
  %3 = tail call noundef zeroext i1 @_ZNK12DirectiveSet22should_collect_memstatEv(ptr noundef nonnull align 8 dereferenceable(280) %1) #14
  %4 = zext i1 %3 to i8
  store i8 %4, ptr %0, align 1
  br i1 %3, label %5, label %16

5:                                                ; preds = %2
  %6 = tail call noundef i64 @_ZNK12DirectiveSet9mem_limitEv(ptr noundef nonnull align 8 dereferenceable(280) %1) #14
  %7 = tail call align 8 ptr @llvm.threadlocal.address.p0(ptr align 8 @_ZN6Thread12_thr_currentE)
  %8 = load ptr, ptr %7, align 8
  %9 = getelementptr inbounds i8, ptr %8, i64 1872
  %10 = load ptr, ptr %9, align 8
  %11 = load i64, ptr %10, align 8
  %12 = getelementptr inbounds i8, ptr %10, i64 8
  store i64 %11, ptr %12, align 8
  %13 = getelementptr inbounds i8, ptr %10, i64 16
  store i64 %11, ptr %13, align 8
  %14 = getelementptr inbounds i8, ptr %10, i64 40
  store i64 %6, ptr %14, align 8
  %15 = getelementptr inbounds i8, ptr %10, i64 48
  store i8 0, ptr %15, align 8
  br label %16

16:                                               ; preds = %5, %2
  ret void
}